target datalayout = "e-m:e-p270:32:32-p271:32:32-p272:64:64-i64:64-i128:128-f80:128-n8:16:32:64-S128"
target triple = "x86_64-pc-linux-gnu"

%struct.AVFilterContext = type { ptr, ptr, ptr, ptr, ptr, i32, ptr, ptr, i32, ptr, ptr, i32, i32, ptr, ptr, ptr, ptr, i32, ptr, i32, i32 }
%struct.LutContext = type { ptr, [4 x [65536 x i16]], [4 x ptr], [4 x ptr], i32, i32, [7 x double], i32, i32, i32, i32, i32 }
%struct.thread_data = type { ptr, ptr, i32, i32 }
%struct.AVFilterLink = type { ptr, ptr, ptr, ptr, i32, i32, i32, i32, %struct.AVRational, i32, i32, i32, %struct.AVChannelLayout, %struct.AVRational, ptr, i32, %struct.AVFilterFormatsConfig, %struct.AVFilterFormatsConfig }
%struct.AVChannelLayout = type { i32, i32, %union.anon.1, ptr }
%union.anon.1 = type { i64 }
%struct.AVRational = type { i32, i32 }
%struct.AVFilterFormatsConfig = type { ptr, ptr, ptr, ptr, ptr }
%struct.AVFrame = type { [8 x ptr], [8 x i32], ptr, i32, i32, i32, i32, i32, %struct.AVRational, i64, i64, %struct.AVRational, i32, ptr, i32, i32, [8 x ptr], ptr, i32, ptr, i32, i32, i32, i32, i32, i32, i32, i64, ptr, i32, ptr, ptr, i64, i64, i64, i64, ptr, %struct.AVChannelLayout, i64 }

; Function Attrs: nounwind uwtable
define internal i32 @filter_frame(ptr noundef %0, ptr noundef %1) #1 {
  %3 = alloca i32, align 4
  %4 = alloca ptr, align 8
  %5 = alloca ptr, align 8
  %6 = alloca ptr, align 8
  %7 = alloca ptr, align 8
  %8 = alloca ptr, align 8
  %9 = alloca ptr, align 8
  %10 = alloca i32, align 4
  %11 = alloca i32, align 4
  %12 = alloca %struct.thread_data, align 8
  %13 = alloca %struct.thread_data, align 8
  %14 = alloca %struct.thread_data, align 8
  %15 = alloca %struct.thread_data, align 8
  store ptr %0, ptr %4, align 8, !tbaa !37
  store ptr %1, ptr %5, align 8, !tbaa !39
  call void @llvm.lifetime.start.p0(i64 8, ptr %6) #8
  %16 = load ptr, ptr %4, align 8, !tbaa !37
  %17 = getelementptr inbounds nuw %struct.AVFilterLink, ptr %16, i32 0, i32 2
  %18 = load ptr, ptr %17, align 8, !tbaa !41
  store ptr %18, ptr %6, align 8, !tbaa !4
  call void @llvm.lifetime.start.p0(i64 8, ptr %7) #8
  %19 = load ptr, ptr %6, align 8, !tbaa !4
  %20 = getelementptr inbounds nuw %struct.AVFilterContext, ptr %19, i32 0, i32 9
  %21 = load ptr, ptr %20, align 8, !tbaa !9
  store ptr %21, ptr %7, align 8, !tbaa !22
  call void @llvm.lifetime.start.p0(i64 8, ptr %8) #8
  %22 = load ptr, ptr %6, align 8, !tbaa !4
  %23 = getelementptr inbounds nuw %struct.AVFilterContext, ptr %22, i32 0, i32 7
  %24 = load ptr, ptr %23, align 8, !tbaa !49
  %25 = getelementptr inbounds ptr, ptr %24, i64 0
  %26 = load ptr, ptr %25, align 8, !tbaa !37
  store ptr %26, ptr %8, align 8, !tbaa !37
  call void @llvm.lifetime.start.p0(i64 8, ptr %9) #8
  call void @llvm.lifetime.start.p0(i64 4, ptr %10) #8
  store i32 0, ptr %10, align 4, !tbaa !24
  %27 = load ptr, ptr %5, align 8, !tbaa !39
  %28 = call i32 @av_frame_is_writable(ptr noundef %27)
  %29 = icmp ne i32 %28, 0
  br i1 %29, label %30, label %32

30:                                               ; preds = %2
  store i32 1, ptr %10, align 4, !tbaa !24
  %31 = load ptr, ptr %5, align 8, !tbaa !39
  store ptr %31, ptr %9, align 8, !tbaa !39
  br label %48

32:                                               ; preds = %2
  %33 = load ptr, ptr %8, align 8, !tbaa !37
  %34 = load ptr, ptr %8, align 8, !tbaa !37
  %35 = getelementptr inbounds nuw %struct.AVFilterLink, ptr %34, i32 0, i32 6
  %36 = load i32, ptr %35, align 8, !tbaa !50
  %37 = load ptr, ptr %8, align 8, !tbaa !37
  %38 = getelementptr inbounds nuw %struct.AVFilterLink, ptr %37, i32 0, i32 7
  %39 = load i32, ptr %38, align 4, !tbaa !51
  %40 = call ptr @ff_get_video_buffer(ptr noundef %33, i32 noundef %36, i32 noundef %39)
  store ptr %40, ptr %9, align 8, !tbaa !39
  %41 = load ptr, ptr %9, align 8, !tbaa !39
  %42 = icmp ne ptr %41, null
  br i1 %42, label %44, label %43

43:                                               ; preds = %32
  call void @av_frame_free(ptr noundef %5)
  store i32 -12, ptr %3, align 4
  store i32 1, ptr %11, align 4
  br label %212

44:                                               ; preds = %32
  %45 = load ptr, ptr %9, align 8, !tbaa !39
  %46 = load ptr, ptr %5, align 8, !tbaa !39
  %47 = call i32 @av_frame_copy_props(ptr noundef %45, ptr noundef %46)
  br label %48

48:                                               ; preds = %44, %30
  %49 = load ptr, ptr %9, align 8, !tbaa !39
  %50 = getelementptr inbounds nuw %struct.AVFrame, ptr %49, i32 0, i32 19
  %51 = load ptr, ptr %9, align 8, !tbaa !39
  %52 = getelementptr inbounds nuw %struct.AVFrame, ptr %51, i32 0, i32 20
  call void @av_frame_side_data_remove_by_props(ptr noundef %50, ptr noundef %52, i32 noundef 8)
  %53 = load ptr, ptr %7, align 8, !tbaa !22
  %54 = getelementptr inbounds nuw %struct.LutContext, ptr %53, i32 0, i32 7
  %55 = load i32, ptr %54, align 8, !tbaa !31
  %56 = icmp ne i32 %55, 0
  br i1 %56, label %57, label %97

57:                                               ; preds = %48
  %58 = load ptr, ptr %7, align 8, !tbaa !22
  %59 = getelementptr inbounds nuw %struct.LutContext, ptr %58, i32 0, i32 10
  %60 = load i32, ptr %59, align 4, !tbaa !52
  %61 = icmp ne i32 %60, 0
  br i1 %61, label %62, label %97

62:                                               ; preds = %57
  %63 = load ptr, ptr %7, align 8, !tbaa !22
  %64 = getelementptr inbounds nuw %struct.LutContext, ptr %63, i32 0, i32 9
  %65 = load i32, ptr %64, align 8, !tbaa !53
  %66 = icmp ne i32 %65, 0
  br i1 %66, label %97, label %67

67:                                               ; preds = %62
  call void @llvm.lifetime.start.p0(i64 24, ptr %12) #8
  %68 = getelementptr inbounds nuw %struct.thread_data, ptr %12, i32 0, i32 0
  %69 = load ptr, ptr %5, align 8, !tbaa !39
  store ptr %69, ptr %68, align 8, !tbaa !54
  %70 = getelementptr inbounds nuw %struct.thread_data, ptr %12, i32 0, i32 1
  %71 = load ptr, ptr %9, align 8, !tbaa !39
  store ptr %71, ptr %70, align 8, !tbaa !56
  %72 = getelementptr inbounds nuw %struct.thread_data, ptr %12, i32 0, i32 2
  %73 = load ptr, ptr %4, align 8, !tbaa !37
  %74 = getelementptr inbounds nuw %struct.AVFilterLink, ptr %73, i32 0, i32 6
  %75 = load i32, ptr %74, align 8, !tbaa !50
  store i32 %75, ptr %72, align 8, !tbaa !57
  %76 = getelementptr inbounds nuw %struct.thread_data, ptr %12, i32 0, i32 3
  %77 = load ptr, ptr %5, align 8, !tbaa !39
  %78 = getelementptr inbounds nuw %struct.AVFrame, ptr %77, i32 0, i32 4
  %79 = load i32, ptr %78, align 4, !tbaa !58
  store i32 %79, ptr %76, align 4, !tbaa !64
  %80 = load ptr, ptr %6, align 8, !tbaa !4
  %81 = load ptr, ptr %5, align 8, !tbaa !39
  %82 = getelementptr inbounds nuw %struct.AVFrame, ptr %81, i32 0, i32 4
  %83 = load i32, ptr %82, align 4, !tbaa !58
  %84 = load ptr, ptr %6, align 8, !tbaa !4
  %85 = call i32 @ff_filter_get_nb_threads(ptr noundef %84) #9
  %86 = icmp sgt i32 %83, %85
  br i1 %86, label %87, label %90

87:                                               ; preds = %67
  %88 = load ptr, ptr %6, align 8, !tbaa !4
  %89 = call i32 @ff_filter_get_nb_threads(ptr noundef %88) #9
  br label %94

90:                                               ; preds = %67
  %91 = load ptr, ptr %5, align 8, !tbaa !39
  %92 = getelementptr inbounds nuw %struct.AVFrame, ptr %91, i32 0, i32 4
  %93 = load i32, ptr %92, align 4, !tbaa !58
  br label %94

94:                                               ; preds = %90, %87
  %95 = phi i32 [ %89, %87 ], [ %93, %90 ]
  %96 = call i32 @ff_filter_execute(ptr noundef %80, ptr noundef @lut_packed_16bits, ptr noundef %12, ptr noundef null, i32 noundef %95)
  call void @llvm.lifetime.end.p0(i64 24, ptr %12) #8
  br label %204

97:                                               ; preds = %62, %57, %48
  %98 = load ptr, ptr %7, align 8, !tbaa !22
  %99 = getelementptr inbounds nuw %struct.LutContext, ptr %98, i32 0, i32 7
  %100 = load i32, ptr %99, align 8, !tbaa !31
  %101 = icmp ne i32 %100, 0
  br i1 %101, label %102, label %137

102:                                              ; preds = %97
  %103 = load ptr, ptr %7, align 8, !tbaa !22
  %104 = getelementptr inbounds nuw %struct.LutContext, ptr %103, i32 0, i32 9
  %105 = load i32, ptr %104, align 8, !tbaa !53
  %106 = icmp ne i32 %105, 0
  br i1 %106, label %137, label %107

107:                                              ; preds = %102
  call void @llvm.lifetime.start.p0(i64 24, ptr %13) #8
  %108 = getelementptr inbounds nuw %struct.thread_data, ptr %13, i32 0, i32 0
  %109 = load ptr, ptr %5, align 8, !tbaa !39
  store ptr %109, ptr %108, align 8, !tbaa !54
  %110 = getelementptr inbounds nuw %struct.thread_data, ptr %13, i32 0, i32 1
  %111 = load ptr, ptr %9, align 8, !tbaa !39
  store ptr %111, ptr %110, align 8, !tbaa !56
  %112 = getelementptr inbounds nuw %struct.thread_data, ptr %13, i32 0, i32 2
  %113 = load ptr, ptr %4, align 8, !tbaa !37
  %114 = getelementptr inbounds nuw %struct.AVFilterLink, ptr %113, i32 0, i32 6
  %115 = load i32, ptr %114, align 8, !tbaa !50
  store i32 %115, ptr %112, align 8, !tbaa !57
  %116 = getelementptr inbounds nuw %struct.thread_data, ptr %13, i32 0, i32 3
  %117 = load ptr, ptr %5, align 8, !tbaa !39
  %118 = getelementptr inbounds nuw %struct.AVFrame, ptr %117, i32 0, i32 4
  %119 = load i32, ptr %118, align 4, !tbaa !58
  store i32 %119, ptr %116, align 4, !tbaa !64
  %120 = load ptr, ptr %6, align 8, !tbaa !4
  %121 = load ptr, ptr %5, align 8, !tbaa !39
  %122 = getelementptr inbounds nuw %struct.AVFrame, ptr %121, i32 0, i32 4
  %123 = load i32, ptr %122, align 4, !tbaa !58
  %124 = load ptr, ptr %6, align 8, !tbaa !4
  %125 = call i32 @ff_filter_get_nb_threads(ptr noundef %124) #9
  %126 = icmp sgt i32 %123, %125
  br i1 %126, label %127, label %130

127:                                              ; preds = %107
  %128 = load ptr, ptr %6, align 8, !tbaa !4
  %129 = call i32 @ff_filter_get_nb_threads(ptr noundef %128) #9
  br label %134

130:                                              ; preds = %107
  %131 = load ptr, ptr %5, align 8, !tbaa !39
  %132 = getelementptr inbounds nuw %struct.AVFrame, ptr %131, i32 0, i32 4
  %133 = load i32, ptr %132, align 4, !tbaa !58
  br label %134

134:                                              ; preds = %130, %127
  %135 = phi i32 [ %129, %127 ], [ %133, %130 ]
  %136 = call i32 @ff_filter_execute(ptr noundef %120, ptr noundef @lut_packed_8bits, ptr noundef %13, ptr noundef null, i32 noundef %135)
  call void @llvm.lifetime.end.p0(i64 24, ptr %13) #8
  br label %203

137:                                              ; preds = %102, %97
  %138 = load ptr, ptr %7, align 8, !tbaa !22
  %139 = getelementptr inbounds nuw %struct.LutContext, ptr %138, i32 0, i32 10
  %140 = load i32, ptr %139, align 4, !tbaa !52
  %141 = icmp ne i32 %140, 0
  br i1 %141, label %142, label %172

142:                                              ; preds = %137
  call void @llvm.lifetime.start.p0(i64 24, ptr %14) #8
  %143 = getelementptr inbounds nuw %struct.thread_data, ptr %14, i32 0, i32 0
  %144 = load ptr, ptr %5, align 8, !tbaa !39
  store ptr %144, ptr %143, align 8, !tbaa !54
  %145 = getelementptr inbounds nuw %struct.thread_data, ptr %14, i32 0, i32 1
  %146 = load ptr, ptr %9, align 8, !tbaa !39
  store ptr %146, ptr %145, align 8, !tbaa !56
  %147 = getelementptr inbounds nuw %struct.thread_data, ptr %14, i32 0, i32 2
  %148 = load ptr, ptr %4, align 8, !tbaa !37
  %149 = getelementptr inbounds nuw %struct.AVFilterLink, ptr %148, i32 0, i32 6
  %150 = load i32, ptr %149, align 8, !tbaa !50
  store i32 %150, ptr %147, align 8, !tbaa !57
  %151 = getelementptr inbounds nuw %struct.thread_data, ptr %14, i32 0, i32 3
  %152 = load ptr, ptr %4, align 8, !tbaa !37
  %153 = getelementptr inbounds nuw %struct.AVFilterLink, ptr %152, i32 0, i32 7
  %154 = load i32, ptr %153, align 4, !tbaa !51
  store i32 %154, ptr %151, align 4, !tbaa !64
  %155 = load ptr, ptr %6, align 8, !tbaa !4
  %156 = load ptr, ptr %5, align 8, !tbaa !39
  %157 = getelementptr inbounds nuw %struct.AVFrame, ptr %156, i32 0, i32 4
  %158 = load i32, ptr %157, align 4, !tbaa !58
  %159 = load ptr, ptr %6, align 8, !tbaa !4
  %160 = call i32 @ff_filter_get_nb_threads(ptr noundef %159) #9
  %161 = icmp sgt i32 %158, %160
  br i1 %161, label %162, label %165

162:                                              ; preds = %142
  %163 = load ptr, ptr %6, align 8, !tbaa !4
  %164 = call i32 @ff_filter_get_nb_threads(ptr noundef %163) #9
  br label %169

165:                                              ; preds = %142
  %166 = load ptr, ptr %5, align 8, !tbaa !39
  %167 = getelementptr inbounds nuw %struct.AVFrame, ptr %166, i32 0, i32 4
  %168 = load i32, ptr %167, align 4, !tbaa !58
  br label %169

169:                                              ; preds = %165, %162
  %170 = phi i32 [ %164, %162 ], [ %168, %165 ]
  %171 = call i32 @ff_filter_execute(ptr noundef %155, ptr noundef @lut_planar_16bits, ptr noundef %14, ptr noundef null, i32 noundef %170)
  call void @llvm.lifetime.end.p0(i64 24, ptr %14) #8
  br label %202

172:                                              ; preds = %137
  call void @llvm.lifetime.start.p0(i64 24, ptr %15) #8
  %173 = getelementptr inbounds nuw %struct.thread_data, ptr %15, i32 0, i32 0
  %174 = load ptr, ptr %5, align 8, !tbaa !39
  store ptr %174, ptr %173, align 8, !tbaa !54
  %175 = getelementptr inbounds nuw %struct.thread_data, ptr %15, i32 0, i32 1
  %176 = load ptr, ptr %9, align 8, !tbaa !39
  store ptr %176, ptr %175, align 8, !tbaa !56
  %177 = getelementptr inbounds nuw %struct.thread_data, ptr %15, i32 0, i32 2
  %178 = load ptr, ptr %4, align 8, !tbaa !37
  %179 = getelementptr inbounds nuw %struct.AVFilterLink, ptr %178, i32 0, i32 6
  %180 = load i32, ptr %179, align 8, !tbaa !50
  store i32 %180, ptr %177, align 8, !tbaa !57
  %181 = getelementptr inbounds nuw %struct.thread_data, ptr %15, i32 0, i32 3
  %182 = load ptr, ptr %4, align 8, !tbaa !37
  %183 = getelementptr inbounds nuw %struct.AVFilterLink, ptr %182, i32 0, i32 7
  %184 = load i32, ptr %183, align 4, !tbaa !51
  store i32 %184, ptr %181, align 4, !tbaa !64
  %185 = load ptr, ptr %6, align 8, !tbaa !4
  %186 = load ptr, ptr %5, align 8, !tbaa !39
  %187 = getelementptr inbounds nuw %struct.AVFrame, ptr %186, i32 0, i32 4
  %188 = load i32, ptr %187, align 4, !tbaa !58
  %189 = load ptr, ptr %6, align 8, !tbaa !4
  %190 = call i32 @ff_filter_get_nb_threads(ptr noundef %189) #9
  %191 = icmp sgt i32 %188, %190
  br i1 %191, label %192, label %195

192:                                              ; preds = %172
  %193 = load ptr, ptr %6, align 8, !tbaa !4
  %194 = call i32 @ff_filter_get_nb_threads(ptr noundef %193) #9
  br label %199

195:                                              ; preds = %172
  %196 = load ptr, ptr %5, align 8, !tbaa !39
  %197 = getelementptr inbounds nuw %struct.AVFrame, ptr %196, i32 0, i32 4
  %198 = load i32, ptr %197, align 4, !tbaa !58
  br label %199

199:                                              ; preds = %195, %192
  %200 = phi i32 [ %194, %192 ], [ %198, %195 ]
  %201 = call i32 @ff_filter_execute(ptr noundef %185, ptr noundef @lut_planar_8bits, ptr noundef %15, ptr noundef null, i32 noundef %200)
  call void @llvm.lifetime.end.p0(i64 24, ptr %15) #8
  br label %202

202:                                              ; preds = %199, %169
  br label %203

203:                                              ; preds = %202, %134
  br label %204

204:                                              ; preds = %203, %94
  %205 = load i32, ptr %10, align 4, !tbaa !24
  %206 = icmp ne i32 %205, 0
  br i1 %206, label %208, label %207

207:                                              ; preds = %204
  call void @av_frame_free(ptr noundef %5)
  br label %208

208:                                              ; preds = %207, %204
  %209 = load ptr, ptr %8, align 8, !tbaa !37
  %210 = load ptr, ptr %9, align 8, !tbaa !39
  %211 = call i32 @ff_filter_frame(ptr noundef %209, ptr noundef %210)
  store i32 %211, ptr %3, align 4
  store i32 1, ptr %11, align 4
  br label %212

212:                                              ; preds = %208, %43
  call void @llvm.lifetime.end.p0(i64 4, ptr %10) #8
  call void @llvm.lifetime.end.p0(i64 8, ptr %9) #8
  call void @llvm.lifetime.end.p0(i64 8, ptr %8) #8
  call void @llvm.lifetime.end.p0(i64 8, ptr %7) #8
  call void @llvm.lifetime.end.p0(i64 8, ptr %6) #8
  %213 = load i32, ptr %3, align 4
  ret i32 %213
}