; Function Attrs: nounwind uwtable
define internal i32 @filter_frame(ptr noundef readonly captures(none) %0, ptr noundef %1) #1 {
  %3 = alloca ptr, align 8
  %4 = alloca %struct.thread_data, align 8
  %5 = alloca %struct.thread_data, align 8
  %6 = alloca %struct.thread_data, align 8
  %7 = alloca %struct.thread_data, align 8
  store ptr %1, ptr %3, align 8, !tbaa !30
  %8 = getelementptr inbounds nuw i8, ptr %0, i64 16
  %9 = load ptr, ptr %8, align 8, !tbaa !32
  %10 = getelementptr inbounds nuw i8, ptr %9, i64 72
  %11 = load ptr, ptr %10, align 8, !tbaa !4
  %12 = getelementptr inbounds nuw i8, ptr %9, i64 56
  %13 = load ptr, ptr %12, align 8, !tbaa !41
  %14 = load ptr, ptr %13, align 8, !tbaa !28
  %15 = tail call i32 @av_frame_is_writable(ptr noundef %1) #11
  %.not = icmp eq i32 %15, 0
  br i1 %.not, label %16, label %25

16:                                               ; preds = %2
  %17 = getelementptr inbounds nuw i8, ptr %14, i64 40
  %18 = load i32, ptr %17, align 8, !tbaa !42
  %19 = getelementptr inbounds nuw i8, ptr %14, i64 44
  %20 = load i32, ptr %19, align 4, !tbaa !43
  %21 = tail call ptr @ff_get_video_buffer(ptr noundef %14, i32 noundef %18, i32 noundef %20) #11
  %.not52 = icmp eq ptr %21, null
  br i1 %.not52, label %22, label %23

22:                                               ; preds = %16
  call void @av_frame_free(ptr noundef nonnull %3) #11
  br label %81

23:                                               ; preds = %16
  %24 = tail call i32 @av_frame_copy_props(ptr noundef nonnull %21, ptr noundef %1) #11
  br label %25

25:                                               ; preds = %2, %23
  %.041 = phi ptr [ %21, %23 ], [ %1, %2 ]
  %26 = getelementptr inbounds nuw i8, ptr %.041, i64 264
  %27 = getelementptr inbounds nuw i8, ptr %.041, i64 272
  tail call void @av_frame_side_data_remove_by_props(ptr noundef nonnull %26, ptr noundef nonnull %27, i32 noundef 8) #11
  %28 = getelementptr inbounds nuw i8, ptr %11, i64 524424
  %29 = load i32, ptr %28, align 8, !tbaa !24
  %.not53 = icmp eq i32 %29, 0
  %.phi.trans.insert64 = getelementptr inbounds nuw i8, ptr %11, i64 524436
  %.pre65 = load i32, ptr %.phi.trans.insert64, align 4, !tbaa !44
  %.not58 = icmp eq i32 %.pre65, 0
  br i1 %.not53, label %54, label %30

30:                                               ; preds = %25
  %.phi.trans.insert = getelementptr inbounds nuw i8, ptr %11, i64 524432
  %.pre = load i32, ptr %.phi.trans.insert, align 8, !tbaa !45
  %31 = icmp eq i32 %.pre, 0
  br i1 %.not58, label %43, label %32

32:                                               ; preds = %30
  br i1 %31, label %33, label %.thread69

33:                                               ; preds = %32
  call void @llvm.lifetime.start.p0(i64 24, ptr nonnull %4) #11
  store ptr %1, ptr %4, align 8, !tbaa !46
  %34 = getelementptr inbounds nuw i8, ptr %4, i64 8
  store ptr %.041, ptr %34, align 8, !tbaa !48
  %35 = getelementptr inbounds nuw i8, ptr %4, i64 16
  %36 = getelementptr inbounds nuw i8, ptr %0, i64 40
  %37 = load i32, ptr %36, align 8, !tbaa !42
  store i32 %37, ptr %35, align 8, !tbaa !49
  %38 = getelementptr inbounds nuw i8, ptr %4, i64 20
  %39 = getelementptr inbounds nuw i8, ptr %1, i64 108
  %40 = load i32, ptr %39, align 4, !tbaa !50
  store i32 %40, ptr %38, align 4, !tbaa !56
  %41 = tail call i32 @ff_filter_get_nb_threads(ptr noundef nonnull %9) #12
  %. = tail call i32 @llvm.smin.i32(i32 %40, i32 %41)
  %42 = call i32 @ff_filter_execute(ptr noundef nonnull %9, ptr noundef nonnull @lut_packed_16bits, ptr noundef nonnull %4, ptr noundef null, i32 noundef %.) #11
  call void @llvm.lifetime.end.p0(i64 24, ptr nonnull %4) #11
  br label %77

43:                                               ; preds = %30
  br i1 %31, label %44, label %.thread67

44:                                               ; preds = %43
  call void @llvm.lifetime.start.p0(i64 24, ptr nonnull %5) #11
  store ptr %1, ptr %5, align 8, !tbaa !46
  %45 = getelementptr inbounds nuw i8, ptr %5, i64 8
  store ptr %.041, ptr %45, align 8, !tbaa !48
  %46 = getelementptr inbounds nuw i8, ptr %5, i64 16
  %47 = getelementptr inbounds nuw i8, ptr %0, i64 40
  %48 = load i32, ptr %47, align 8, !tbaa !42
  store i32 %48, ptr %46, align 8, !tbaa !49
  %49 = getelementptr inbounds nuw i8, ptr %5, i64 20
  %50 = getelementptr inbounds nuw i8, ptr %1, i64 108
  %51 = load i32, ptr %50, align 4, !tbaa !50
  store i32 %51, ptr %49, align 4, !tbaa !56
  %52 = tail call i32 @ff_filter_get_nb_threads(ptr noundef nonnull %9) #12
  %.60 = tail call i32 @llvm.smin.i32(i32 %51, i32 %52)
  %53 = call i32 @ff_filter_execute(ptr noundef nonnull %9, ptr noundef nonnull @lut_packed_8bits, ptr noundef nonnull %5, ptr noundef null, i32 noundef %.60) #11
  call void @llvm.lifetime.end.p0(i64 24, ptr nonnull %5) #11
  br label %77

54:                                               ; preds = %25
  br i1 %.not58, label %.thread67, label %.thread69

.thread69:                                        ; preds = %32, %54
  call void @llvm.lifetime.start.p0(i64 24, ptr nonnull %6) #11
  store ptr %1, ptr %6, align 8, !tbaa !46
  %55 = getelementptr inbounds nuw i8, ptr %6, i64 8
  store ptr %.041, ptr %55, align 8, !tbaa !48
  %56 = getelementptr inbounds nuw i8, ptr %6, i64 16
  %57 = getelementptr inbounds nuw i8, ptr %0, i64 40
  %58 = load i32, ptr %57, align 8, !tbaa !42
  store i32 %58, ptr %56, align 8, !tbaa !49
  %59 = getelementptr inbounds nuw i8, ptr %6, i64 20
  %60 = getelementptr inbounds nuw i8, ptr %0, i64 44
  %61 = load i32, ptr %60, align 4, !tbaa !43
  store i32 %61, ptr %59, align 4, !tbaa !56
  %62 = getelementptr inbounds nuw i8, ptr %1, i64 108
  %63 = load i32, ptr %62, align 4, !tbaa !50
  %64 = tail call i32 @ff_filter_get_nb_threads(ptr noundef nonnull %9) #12
  %.61 = tail call i32 @llvm.smin.i32(i32 %63, i32 %64)
  %65 = call i32 @ff_filter_execute(ptr noundef nonnull %9, ptr noundef nonnull @lut_planar_16bits, ptr noundef nonnull %6, ptr noundef null, i32 noundef %.61) #11
  call void @llvm.lifetime.end.p0(i64 24, ptr nonnull %6) #11
  br label %77

.thread67:                                        ; preds = %43, %54
  call void @llvm.lifetime.start.p0(i64 24, ptr nonnull %7) #11
  store ptr %1, ptr %7, align 8, !tbaa !46
  %66 = getelementptr inbounds nuw i8, ptr %7, i64 8
  store ptr %.041, ptr %66, align 8, !tbaa !48
  %67 = getelementptr inbounds nuw i8, ptr %7, i64 16
  %68 = getelementptr inbounds nuw i8, ptr %0, i64 40
  %69 = load i32, ptr %68, align 8, !tbaa !42
  store i32 %69, ptr %67, align 8, !tbaa !49
  %70 = getelementptr inbounds nuw i8, ptr %7, i64 20
  %71 = getelementptr inbounds nuw i8, ptr %0, i64 44
  %72 = load i32, ptr %71, align 4, !tbaa !43
  store i32 %72, ptr %70, align 4, !tbaa !56
  %73 = getelementptr inbounds nuw i8, ptr %1, i64 108
  %74 = load i32, ptr %73, align 4, !tbaa !50
  %75 = tail call i32 @ff_filter_get_nb_threads(ptr noundef nonnull %9) #12
  %.62 = tail call i32 @llvm.smin.i32(i32 %74, i32 %75)
  %76 = call i32 @ff_filter_execute(ptr noundef nonnull %9, ptr noundef nonnull @lut_planar_8bits, ptr noundef nonnull %7, ptr noundef null, i32 noundef %.62) #11
  call void @llvm.lifetime.end.p0(i64 24, ptr nonnull %7) #11
  br label %77

77:                                               ; preds = %44, %.thread67, %.thread69, %33
  br i1 %.not, label %78, label %79

78:                                               ; preds = %77
  call void @av_frame_free(ptr noundef nonnull %3) #11
  br label %79

79:                                               ; preds = %78, %77
  %80 = call i32 @ff_filter_frame(ptr noundef %14, ptr noundef nonnull %.041) #11
  br label %81

81:                                               ; preds = %79, %22
  %.042 = phi i32 [ %80, %79 ], [ -12, %22 ]
  ret i32 %.042
}